; Function Attrs: mustprogress uwtable
define noundef zeroext i1 @_ZNK8QuantLib6France12ExchangeImpl13isBusinessDayERKNS_4DateE(ptr noundef nonnull align 8 dereferenceable(104) %this, ptr noundef nonnull align 8 dereferenceable(8) %date) unnamed_addr #0 align 2 {
entry:
  %0 = load i64, ptr %date, align 8, !tbaa !30
  %rem.i = srem i64 %0, 7
  %conv.i = trunc nsw i64 %rem.i to i32
  %cmp.i = icmp eq i64 %rem.i, 0
  %cond.i = select i1 %cmp.i, i32 7, i32 %conv.i
  %call.i.i = tail call noundef i32 @_ZNK8QuantLib4Date4yearEv(ptr noundef nonnull align 8 dereferenceable(8) %date)
  %call2.i.i = tail call noundef i64 @_ZN8QuantLib4Date10yearOffsetEi(i32 noundef %call.i.i)
  %sub.i.i = sub nsw i64 %0, %call2.i.i
  %conv.i.i = trunc i64 %sub.i.i to i32
  %call2.i = tail call noundef i32 @_ZNK8QuantLib4Date5monthEv(ptr noundef nonnull align 8 dereferenceable(8) %date)
  %call3.i = tail call noundef i32 @_ZNK8QuantLib4Date4yearEv(ptr noundef nonnull align 8 dereferenceable(8) %date)
  %call4.i = tail call noundef zeroext i1 @_ZN8QuantLib4Date6isLeapEi(i32 noundef %call3.i)
  %call5.i = tail call noundef i32 @_ZN8QuantLib4Date11monthOffsetENS_5MonthEb(i32 noundef %call2.i, i1 noundef zeroext %call4.i)
  %sub.i = sub nsw i32 %conv.i.i, %call5.i
  %1 = load i64, ptr %date, align 8, !tbaa !30
  %call.i = tail call noundef i32 @_ZNK8QuantLib4Date4yearEv(ptr noundef nonnull align 8 dereferenceable(8) %date)
  %call2.i28 = tail call noundef i64 @_ZN8QuantLib4Date10yearOffsetEi(i32 noundef %call.i)
  %call4 = tail call noundef i32 @_ZNK8QuantLib4Date5monthEv(ptr noundef nonnull align 8 dereferenceable(8) %date)
  %call5 = tail call noundef i32 @_ZNK8QuantLib4Date4yearEv(ptr noundef nonnull align 8 dereferenceable(8) %date)
  %call6 = tail call noundef i32 @_ZN8QuantLib8Calendar11WesternImpl12easterMondayEi(i32 noundef %call5)
  %call7 = tail call noundef zeroext i1 @_ZNK8QuantLib8Calendar11WesternImpl9isWeekendENS_7WeekdayE(ptr noundef nonnull align 8 dereferenceable(104) %this, i32 noundef %cond.i)
  br i1 %call7, label %cleanup, label %lor.lhs.false

lor.lhs.false:                                    ; preds = %entry
  %sub.i29 = sub nsw i64 %1, %call2.i28
  %conv.i30 = trunc i64 %sub.i29 to i32
  %cmp = icmp eq i32 %sub.i, 1
  %cmp8 = icmp eq i32 %call4, 1
  %or.cond = and i1 %cmp, %cmp8
  %sub = add nsw i32 %call6, -3
  %cmp10 = icmp eq i32 %sub, %conv.i30
  %or.cond22 = select i1 %or.cond, i1 true, i1 %cmp10
  %cmp12 = icmp eq i32 %call6, %conv.i30
  %or.cond23 = or i1 %cmp12, %or.cond22
  %cmp16 = icmp eq i32 %call4, 5
  %or.cond1 = and i1 %cmp, %cmp16
  %or.cond24 = or i1 %or.cond1, %or.cond23
  br i1 %or.cond24, label %cleanup, label %lor.lhs.false17

lor.lhs.false17:                                  ; preds = %lor.lhs.false
  %cmp20 = icmp ne i32 %call4, 12
  %2 = and i32 %sub.i, -2
  %or.cond231 = icmp ne i32 %2, 24
  %cmp26 = icmp ne i32 %sub.i, 26
  %or.cond2532.not35 = and i1 %cmp26, %or.cond231
  %cmp30 = icmp ne i32 %sub.i, 31
  %or.cond2633.not34 = and i1 %cmp30, %or.cond2532.not35
  %or.cond27.not = or i1 %or.cond2633.not34, %cmp20
  br label %cleanup

cleanup:                                          ; preds = %lor.lhs.false17, %entry, %lor.lhs.false
  %retval.0 = phi i1 [ false, %lor.lhs.false ], [ false, %entry ], [ %or.cond27.not, %lor.lhs.false17 ]
  ret i1 %retval.0
}